; Function Attrs: mustprogress uwtable
define hidden void @_ZN11aig_manager10to_formulaERK7aig_refR7obj_refI4expr11ast_managerE(ptr noundef nonnull readonly align 8 captures(none) dereferenceable(8) %0, ptr noundef nonnull readonly align 8 captures(none) dereferenceable(16) %1, ptr noundef nonnull align 8 dereferenceable(16) %2) local_unnamed_addr #6 align 2 personality ptr @__gxx_personality_v0 {
  %4 = alloca %"struct.aig_manager::imp::aig2expr", align 8
  %5 = alloca %class.aig_lit, align 8
  %6 = load ptr, ptr %0, align 8, !tbaa !16
  call void @llvm.lifetime.start.p0(i64 8, ptr nonnull %5) #27
  %7 = getelementptr inbounds nuw i8, ptr %1, i64 8
  %8 = load ptr, ptr %7, align 8, !tbaa !12
  store ptr %8, ptr %5, align 8, !tbaa !9
  call void @llvm.lifetime.start.p0(i64 56, ptr nonnull %4) #27
  store ptr %6, ptr %4, align 8, !tbaa !124
  %9 = getelementptr inbounds nuw i8, ptr %4, i64 8
  %10 = getelementptr inbounds nuw i8, ptr %6, i64 104
  %11 = load ptr, ptr %10, align 8, !tbaa !156
  store ptr %11, ptr %9, align 8, !tbaa !47
  %12 = getelementptr inbounds nuw i8, ptr %4, i64 16
  %13 = ptrtoint ptr %11 to i64
  store i64 %13, ptr %12, align 8, !tbaa !47
  %14 = getelementptr inbounds nuw i8, ptr %4, i64 24
  call void @llvm.memset.p0.i64(ptr noundef nonnull align 8 dereferenceable(32) %14, i8 0, i64 32, i1 false)
  invoke void @_ZN11aig_manager3imp8aig2expr9not_naiveERK7aig_litR7obj_refI4expr11ast_managerE(ptr noundef nonnull align 8 dereferenceable(56) %4, ptr noundef nonnull align 8 dereferenceable(8) %5, ptr noundef nonnull align 8 dereferenceable(16) %2)
          to label %_ZN11aig_manager3imp10to_formulaERK7aig_litR7obj_refI4expr11ast_managerE.exit unwind label %15

15:                                               ; preds = %3
  %16 = landingpad { ptr, i32 }
          cleanup
  call void @_ZN11aig_manager3imp8aig2exprD2Ev(ptr noundef nonnull align 8 dereferenceable(56) %4) #27
  call void @llvm.lifetime.end.p0(i64 56, ptr nonnull %4) #27
  resume { ptr, i32 } %16

_ZN11aig_manager3imp10to_formulaERK7aig_litR7obj_refI4expr11ast_managerE.exit: ; preds = %3
  call void @_ZN11aig_manager3imp8aig2exprD2Ev(ptr noundef nonnull align 8 dereferenceable(56) %4) #27
  call void @llvm.lifetime.end.p0(i64 56, ptr nonnull %4) #27
  call void @llvm.lifetime.end.p0(i64 8, ptr nonnull %5) #27
  ret void
}